target datalayout = "e-m:e-p270:32:32-p271:32:32-p272:64:64-i64:64-i128:128-f80:128-n8:16:32:64-S128"
target triple = "x86_64-pc-linux-gnu"

%struct.HashValue = type { i32, %union.anon }
%union.anon = type { i32, [28 x i8] }

; Function Attrs: mustprogress nounwind uwtable
define noundef zeroext i1 @_ZNK9HashValueeqERKS_(ptr noundef nonnull align 4 dereferenceable(36) %0, ptr noundef nonnull align 4 dereferenceable(36) %1) #0 align 2 {
  %3 = alloca i1, align 1
  %4 = alloca ptr, align 8
  %5 = alloca ptr, align 8
  store ptr %0, ptr %4, align 8
  store ptr %1, ptr %5, align 8
  %6 = load ptr, ptr %4, align 8
  %7 = getelementptr inbounds %struct.HashValue, ptr %6, i32 0, i32 0
  %8 = load i32, ptr %7, align 4
  %9 = icmp eq i32 %8, 0
  br i1 %9, label %15, label %10

10:                                               ; preds = %2
  %11 = load ptr, ptr %5, align 8
  %12 = getelementptr inbounds %struct.HashValue, ptr %11, i32 0, i32 0
  %13 = load i32, ptr %12, align 4
  %14 = icmp eq i32 %13, 0
  br i1 %14, label %15, label %16

15:                                               ; preds = %10, %2
  store i1 true, ptr %3, align 1
  br label %59

16:                                               ; preds = %10
  %17 = getelementptr inbounds %struct.HashValue, ptr %6, i32 0, i32 0
  %18 = load i32, ptr %17, align 4
  %19 = icmp eq i32 %18, 1
  br i1 %19, label %20, label %25

20:                                               ; preds = %16
  %21 = load ptr, ptr %5, align 8
  %22 = getelementptr inbounds %struct.HashValue, ptr %21, i32 0, i32 0
  %23 = load i32, ptr %22, align 4
  %24 = icmp eq i32 %23, 1
  br i1 %24, label %34, label %25

25:                                               ; preds = %20, %16
  %26 = getelementptr inbounds %struct.HashValue, ptr %6, i32 0, i32 0
  %27 = load i32, ptr %26, align 4
  %28 = icmp eq i32 %27, 2
  br i1 %28, label %29, label %41

29:                                               ; preds = %25
  %30 = load ptr, ptr %5, align 8
  %31 = getelementptr inbounds %struct.HashValue, ptr %30, i32 0, i32 0
  %32 = load i32, ptr %31, align 4
  %33 = icmp eq i32 %32, 2
  br i1 %33, label %34, label %41

34:                                               ; preds = %29, %20
  %35 = getelementptr inbounds %struct.HashValue, ptr %6, i32 0, i32 1
  %36 = load i32, ptr %35, align 4
  %37 = load ptr, ptr %5, align 8
  %38 = getelementptr inbounds %struct.HashValue, ptr %37, i32 0, i32 1
  %39 = load i32, ptr %38, align 4
  %40 = icmp eq i32 %36, %39
  store i1 %40, ptr %3, align 1
  br label %59

41:                                               ; preds = %29, %25
  %42 = getelementptr inbounds %struct.HashValue, ptr %6, i32 0, i32 0
  %43 = load i32, ptr %42, align 4
  %44 = icmp eq i32 %43, 3
  br i1 %44, label %45, label %58

45:                                               ; preds = %41
  %46 = load ptr, ptr %5, align 8
  %47 = getelementptr inbounds %struct.HashValue, ptr %46, i32 0, i32 0
  %48 = load i32, ptr %47, align 4
  %49 = icmp eq i32 %48, 3
  br i1 %49, label %50, label %58

50:                                               ; preds = %45
  %51 = getelementptr inbounds %struct.HashValue, ptr %6, i32 0, i32 1
  %52 = getelementptr inbounds [32 x i8], ptr %51, i64 0, i64 0
  %53 = load ptr, ptr %5, align 8
  %54 = getelementptr inbounds %struct.HashValue, ptr %53, i32 0, i32 1
  %55 = getelementptr inbounds [32 x i8], ptr %54, i64 0, i64 0
  %56 = call i32 @memcmp(ptr noundef %52, ptr noundef %55, i64 noundef 32) #8
  %57 = icmp eq i32 %56, 0
  store i1 %57, ptr %3, align 1
  br label %59

58:                                               ; preds = %45, %41
  store i1 false, ptr %3, align 1
  br label %59

59:                                               ; preds = %58, %50, %34, %15
  %60 = load i1, ptr %3, align 1
  ret i1 %60
}