; Function Attrs: mustprogress nofree nounwind willreturn memory(argmem: read) uwtable
define noundef zeroext i1 @_ZNK9HashValueeqERKS_(ptr nocapture noundef nonnull readonly align 4 dereferenceable(36) %0, ptr nocapture noundef nonnull readonly align 4 dereferenceable(36) %1) local_unnamed_addr #2 align 2 {
  %3 = load i32, ptr %0, align 4
  %4 = icmp eq i32 %3, 0
  br i1 %4, label %27, label %5

5:                                                ; preds = %2
  %6 = load i32, ptr %1, align 4
  %7 = icmp eq i32 %6, 0
  br i1 %7, label %27, label %8

8:                                                ; preds = %5
  %9 = icmp eq i32 %3, 1
  %10 = icmp eq i32 %6, 1
  %or.cond = and i1 %9, %10
  br i1 %or.cond, label %14, label %11

11:                                               ; preds = %8
  %12 = icmp eq i32 %3, 2
  %13 = icmp eq i32 %6, 2
  %or.cond11 = and i1 %12, %13
  br i1 %or.cond11, label %14, label %20

14:                                               ; preds = %11, %8
  %15 = getelementptr inbounds i8, ptr %0, i64 4
  %16 = load i32, ptr %15, align 4
  %17 = getelementptr inbounds i8, ptr %1, i64 4
  %18 = load i32, ptr %17, align 4
  %19 = icmp eq i32 %16, %18
  br label %27

20:                                               ; preds = %11
  %21 = icmp eq i32 %3, 3
  %22 = icmp eq i32 %6, 3
  %or.cond13 = and i1 %21, %22
  br i1 %or.cond13, label %23, label %27

23:                                               ; preds = %20
  %24 = getelementptr inbounds i8, ptr %0, i64 4
  %25 = getelementptr inbounds i8, ptr %1, i64 4
  %bcmp = tail call i32 @bcmp(ptr noundef nonnull dereferenceable(32) %24, ptr noundef nonnull dereferenceable(32) %25, i64 32)
  %26 = icmp eq i32 %bcmp, 0
  br label %27

27:                                               ; preds = %20, %2, %5, %23, %14
  %.0 = phi i1 [ %19, %14 ], [ %26, %23 ], [ true, %5 ], [ true, %2 ], [ false, %20 ]
  ret i1 %.0
}